; Function Attrs: mustprogress uwtable
define void @_ZN5faiss8IndexLSHC2Ev(ptr noundef nonnull align 8 dereferenceable(184) %0) unnamed_addr #1 align 2 personality ptr @__gxx_personality_v0 {
  tail call void @_ZN5faiss14IndexFlatCodesC2Ev(ptr noundef nonnull align 8 dereferenceable(72) %0)
  store ptr getelementptr inbounds ({ [25 x ptr] }, ptr @_ZTVN5faiss8IndexLSHE, i64 0, i32 0, i64 2), ptr %0, align 8
  %2 = getelementptr inbounds i8, ptr %0, i64 72
  store i32 0, ptr %2, align 8
  %3 = getelementptr inbounds i8, ptr %0, i64 76
  store i8 0, ptr %3, align 4
  %4 = getelementptr inbounds i8, ptr %0, i64 77
  store i8 0, ptr %4, align 1
  %5 = getelementptr inbounds i8, ptr %0, i64 80
  invoke void @_ZN5faiss15LinearTransformC2Eiib(ptr noundef nonnull align 8 dereferenceable(73) %5, i32 noundef 0, i32 noundef 0, i1 noundef zeroext false)
          to label %6 unwind label %8

6:                                                ; preds = %1
  store ptr getelementptr inbounds ({ [8 x ptr] }, ptr @_ZTVN5faiss20RandomRotationMatrixE, i64 0, i32 0, i64 2), ptr %5, align 8
  %7 = getelementptr inbounds i8, ptr %0, i64 160
  tail call void @llvm.memset.p0.i64(ptr noundef nonnull align 8 dereferenceable(24) %7, i8 0, i64 24, i1 false)
  ret void

8:                                                ; preds = %1
  %9 = landingpad { ptr, i32 }
          cleanup
  tail call void @_ZN5faiss14IndexFlatCodesD2Ev(ptr noundef nonnull align 8 dereferenceable(72) %0) #15
  resume { ptr, i32 } %9
}